target datalayout = "e-m:e-p270:32:32-p271:32:32-p272:64:64-i64:64-i128:128-f80:128-n8:16:32:64-S128"
target triple = "x86_64-pc-linux-gnu"

%struct.prov_cipher_ctx_st = type { [16 x i8], [16 x i8], [16 x i8], ptr, %union.anon, i32, i64, i64, i64, i64, i32, i8, i32, ptr, i32, i64, i32, i64, i32, ptr, ptr, ptr }
%union.anon = type { ptr }
%struct.prov_cipher_hw_st = type { ptr, ptr, ptr }

@.str = private unnamed_addr constant [66 x i8] c"../openssl/providers/implementations/ciphers/cipher_tdes_common.c\00", align 1
@__func__.tdes_init = private unnamed_addr constant [10 x i8] c"tdes_init\00", align 1

; Function Attrs: nounwind uwtable
define i32 @ossl_tdes_set_ctx_params(ptr noundef %0, ptr noundef %1) #0 {
  %3 = alloca ptr, align 8
  %4 = alloca ptr, align 8
  store ptr %0, ptr %3, align 8, !tbaa !3
  store ptr %1, ptr %4, align 8, !tbaa !23
  %5 = load ptr, ptr %3, align 8, !tbaa !3
  %6 = load ptr, ptr %4, align 8, !tbaa !23
  %7 = call i32 @ossl_cipher_generic_set_ctx_params(ptr noundef %5, ptr noundef %6)
  ret i32 %7
}

; Function Attrs: nounwind uwtable
define internal i32 @tdes_init(ptr noundef %0, ptr noundef %1, i64 noundef %2, ptr noundef %3, i64 noundef %4, ptr noundef %5, i32 noundef %6) #0 {
  %8 = alloca i32, align 4
  %9 = alloca ptr, align 8
  %10 = alloca ptr, align 8
  %11 = alloca i64, align 8
  %12 = alloca ptr, align 8
  %13 = alloca i64, align 8
  %14 = alloca ptr, align 8
  %15 = alloca i32, align 4
  %16 = alloca ptr, align 8
  %17 = alloca i32, align 4
  store ptr %0, ptr %9, align 8, !tbaa !3
  store ptr %1, ptr %10, align 8, !tbaa !22
  store i64 %2, ptr %11, align 8, !tbaa !9
  store ptr %3, ptr %12, align 8, !tbaa !22
  store i64 %4, ptr %13, align 8, !tbaa !9
  store ptr %5, ptr %14, align 8, !tbaa !23
  store i32 %6, ptr %15, align 4, !tbaa !7
  call void @llvm.lifetime.start.p0(i64 8, ptr %16) #4
  %18 = load ptr, ptr %9, align 8, !tbaa !3
  store ptr %18, ptr %16, align 8, !tbaa !25
  %19 = call i32 @ossl_prov_is_running()
  %20 = icmp ne i32 %19, 0
  br i1 %20, label %22, label %21

21:                                               ; preds = %7
  store i32 0, ptr %8, align 4
  store i32 1, ptr %17, align 4
  br label %117

22:                                               ; preds = %7
  %23 = load ptr, ptr %16, align 8, !tbaa !25
  %24 = getelementptr inbounds nuw %struct.prov_cipher_ctx_st, ptr %23, i32 0, i32 18
  store i32 0, ptr %24, align 8, !tbaa !27
  %25 = load ptr, ptr %16, align 8, !tbaa !25
  %26 = getelementptr inbounds nuw %struct.prov_cipher_ctx_st, ptr %25, i32 0, i32 9
  store i64 0, ptr %26, align 8, !tbaa !28
  %27 = load i32, ptr %15, align 4, !tbaa !7
  %28 = load ptr, ptr %16, align 8, !tbaa !25
  %29 = getelementptr inbounds nuw %struct.prov_cipher_ctx_st, ptr %28, i32 0, i32 11
  %30 = trunc i32 %27 to i8
  %31 = load i8, ptr %29, align 4
  %32 = and i8 %30, 1
  %33 = shl i8 %32, 1
  %34 = and i8 %31, -3
  %35 = or i8 %34, %33
  store i8 %35, ptr %29, align 4
  %36 = load ptr, ptr %12, align 8, !tbaa !22
  %37 = icmp ne ptr %36, null
  br i1 %37, label %38, label %46

38:                                               ; preds = %22
  %39 = load ptr, ptr %16, align 8, !tbaa !25
  %40 = load ptr, ptr %12, align 8, !tbaa !22
  %41 = load i64, ptr %13, align 8, !tbaa !9
  %42 = call i32 @ossl_cipher_generic_initiv(ptr noundef %39, ptr noundef %40, i64 noundef %41)
  %43 = icmp ne i32 %42, 0
  br i1 %43, label %45, label %44

44:                                               ; preds = %38
  store i32 0, ptr %8, align 4
  store i32 1, ptr %17, align 4
  br label %117

45:                                               ; preds = %38
  br label %80

46:                                               ; preds = %22
  %47 = load ptr, ptr %16, align 8, !tbaa !25
  %48 = getelementptr inbounds nuw %struct.prov_cipher_ctx_st, ptr %47, i32 0, i32 11
  %49 = load i8, ptr %48, align 4
  %50 = lshr i8 %49, 2
  %51 = and i8 %50, 1
  %52 = zext i8 %51 to i32
  %53 = icmp ne i32 %52, 0
  br i1 %53, label %54, label %79

54:                                               ; preds = %46
  %55 = load ptr, ptr %16, align 8, !tbaa !25
  %56 = getelementptr inbounds nuw %struct.prov_cipher_ctx_st, ptr %55, i32 0, i32 5
  %57 = load i32, ptr %56, align 8, !tbaa !29
  %58 = icmp eq i32 %57, 2
  br i1 %58, label %69, label %59

59:                                               ; preds = %54
  %60 = load ptr, ptr %16, align 8, !tbaa !25
  %61 = getelementptr inbounds nuw %struct.prov_cipher_ctx_st, ptr %60, i32 0, i32 5
  %62 = load i32, ptr %61, align 8, !tbaa !29
  %63 = icmp eq i32 %62, 3
  br i1 %63, label %69, label %64

64:                                               ; preds = %59
  %65 = load ptr, ptr %16, align 8, !tbaa !25
  %66 = getelementptr inbounds nuw %struct.prov_cipher_ctx_st, ptr %65, i32 0, i32 5
  %67 = load i32, ptr %66, align 8, !tbaa !29
  %68 = icmp eq i32 %67, 4
  br i1 %68, label %69, label %79

69:                                               ; preds = %64, %59, %54
  %70 = load ptr, ptr %16, align 8, !tbaa !25
  %71 = getelementptr inbounds nuw %struct.prov_cipher_ctx_st, ptr %70, i32 0, i32 2
  %72 = getelementptr inbounds [16 x i8], ptr %71, i64 0, i64 0
  %73 = load ptr, ptr %16, align 8, !tbaa !25
  %74 = getelementptr inbounds nuw %struct.prov_cipher_ctx_st, ptr %73, i32 0, i32 0
  %75 = getelementptr inbounds [16 x i8], ptr %74, i64 0, i64 0
  %76 = load ptr, ptr %16, align 8, !tbaa !25
  %77 = getelementptr inbounds nuw %struct.prov_cipher_ctx_st, ptr %76, i32 0, i32 7
  %78 = load i64, ptr %77, align 8, !tbaa !30
  call void @llvm.memcpy.p0.p0.i64(ptr align 8 %72, ptr align 8 %75, i64 %78, i1 false)
  br label %79

79:                                               ; preds = %69, %64, %46
  br label %80

80:                                               ; preds = %79, %45
  %81 = load ptr, ptr %10, align 8, !tbaa !22
  %82 = icmp ne ptr %81, null
  br i1 %82, label %83, label %110

83:                                               ; preds = %80
  %84 = load i64, ptr %11, align 8, !tbaa !9
  %85 = load ptr, ptr %16, align 8, !tbaa !25
  %86 = getelementptr inbounds nuw %struct.prov_cipher_ctx_st, ptr %85, i32 0, i32 6
  %87 = load i64, ptr %86, align 8, !tbaa !31
  %88 = icmp ne i64 %84, %87
  br i1 %88, label %89, label %90

89:                                               ; preds = %83
  call void @ERR_new()
  call void @ERR_set_debug(ptr noundef @.str, i32 noundef 104, ptr noundef @__func__.tdes_init)
  call void (i32, i32, ptr, ...) @ERR_set_error(i32 noundef 57, i32 noundef 105, ptr noundef null)
  store i32 0, ptr %8, align 4
  store i32 1, ptr %17, align 4
  br label %117

90:                                               ; preds = %83
  %91 = load ptr, ptr %16, align 8, !tbaa !25
  %92 = getelementptr inbounds nuw %struct.prov_cipher_ctx_st, ptr %91, i32 0, i32 19
  %93 = load ptr, ptr %92, align 8, !tbaa !32
  %94 = getelementptr inbounds nuw %struct.prov_cipher_hw_st, ptr %93, i32 0, i32 0
  %95 = load ptr, ptr %94, align 8, !tbaa !33
  %96 = load ptr, ptr %16, align 8, !tbaa !25
  %97 = load ptr, ptr %10, align 8, !tbaa !22
  %98 = load ptr, ptr %16, align 8, !tbaa !25
  %99 = getelementptr inbounds nuw %struct.prov_cipher_ctx_st, ptr %98, i32 0, i32 6
  %100 = load i64, ptr %99, align 8, !tbaa !31
  %101 = call i32 %95(ptr noundef %96, ptr noundef %97, i64 noundef %100)
  %102 = icmp ne i32 %101, 0
  br i1 %102, label %104, label %103

103:                                              ; preds = %90
  store i32 0, ptr %8, align 4
  store i32 1, ptr %17, align 4
  br label %117

104:                                              ; preds = %90
  %105 = load ptr, ptr %16, align 8, !tbaa !25
  %106 = getelementptr inbounds nuw %struct.prov_cipher_ctx_st, ptr %105, i32 0, i32 11
  %107 = load i8, ptr %106, align 4
  %108 = and i8 %107, -9
  %109 = or i8 %108, 8
  store i8 %109, ptr %106, align 4
  br label %110

110:                                              ; preds = %104, %80
  %111 = load ptr, ptr %16, align 8, !tbaa !25
  %112 = load ptr, ptr %14, align 8, !tbaa !23
  %113 = call i32 @ossl_tdes_set_ctx_params(ptr noundef %111, ptr noundef %112)
  %114 = icmp ne i32 %113, 0
  br i1 %114, label %116, label %115

115:                                              ; preds = %110
  store i32 0, ptr %8, align 4
  store i32 1, ptr %17, align 4
  br label %117

116:                                              ; preds = %110
  store i32 1, ptr %8, align 4
  store i32 1, ptr %17, align 4
  br label %117

117:                                              ; preds = %116, %115, %103, %89, %44, %21
  call void @llvm.lifetime.end.p0(i64 8, ptr %16) #4
  %118 = load i32, ptr %8, align 4
  ret i32 %118
}