; Function Attrs: nounwind uwtable
define internal fastcc range(i32 0, 2) i32 @tdes_init(ptr noundef %0, ptr noundef %1, i64 noundef %2, ptr noundef %3, i64 noundef %4, ptr noundef %5, i32 noundef range(i32 0, 2) %6) unnamed_addr #0 {
  %8 = tail call i32 @ossl_prov_is_running() #4
  %.not = icmp eq i32 %8, 0
  br i1 %.not, label %44, label %9

9:                                                ; preds = %7
  %10 = getelementptr inbounds nuw i8, ptr %0, i64 160
  store i32 0, ptr %10, align 8, !tbaa !16
  %11 = getelementptr inbounds nuw i8, ptr %0, i64 96
  store i64 0, ptr %11, align 8, !tbaa !17
  %12 = getelementptr inbounds nuw i8, ptr %0, i64 108
  %13 = trunc nuw nsw i32 %6 to i8
  %14 = load i8, ptr %12, align 4
  %15 = shl nuw nsw i8 %13, 1
  %16 = and i8 %14, -3
  %17 = or disjoint i8 %16, %15
  store i8 %17, ptr %12, align 4
  %.not30 = icmp eq ptr %3, null
  br i1 %.not30, label %20, label %18

18:                                               ; preds = %9
  %19 = tail call i32 @ossl_cipher_generic_initiv(ptr noundef nonnull %0, ptr noundef nonnull %3, i64 noundef %4) #4
  %.not32 = icmp eq i32 %19, 0
  br i1 %.not32, label %44, label %29

20:                                               ; preds = %9
  %21 = and i8 %14, 4
  %.not31 = icmp eq i8 %21, 0
  br i1 %.not31, label %29, label %22

22:                                               ; preds = %20
  %23 = getelementptr inbounds nuw i8, ptr %0, i64 64
  %24 = load i32, ptr %23, align 8, !tbaa !18
  %.off = add i32 %24, -2
  %switch = icmp ult i32 %.off, 3
  br i1 %switch, label %25, label %29

25:                                               ; preds = %22
  %26 = getelementptr inbounds nuw i8, ptr %0, i64 32
  %27 = getelementptr inbounds nuw i8, ptr %0, i64 80
  %28 = load i64, ptr %27, align 8, !tbaa !19
  tail call void @llvm.memcpy.p0.p0.i64(ptr nonnull align 8 %26, ptr nonnull align 8 %0, i64 %28, i1 false)
  br label %29

29:                                               ; preds = %22, %20, %25, %18
  %.not33 = icmp eq ptr %1, null
  br i1 %.not33, label %42, label %30

30:                                               ; preds = %29
  %31 = getelementptr inbounds nuw i8, ptr %0, i64 72
  %32 = load i64, ptr %31, align 8, !tbaa !20
  %.not34 = icmp eq i64 %2, %32
  br i1 %.not34, label %34, label %33

33:                                               ; preds = %30
  tail call void @ERR_new() #4
  tail call void @ERR_set_debug(ptr noundef nonnull @.str, i32 noundef 104, ptr noundef nonnull @__func__.tdes_init) #4
  tail call void (i32, i32, ptr, ...) @ERR_set_error(i32 noundef 57, i32 noundef 105, ptr noundef null) #4
  br label %44

34:                                               ; preds = %30
  %35 = getelementptr inbounds nuw i8, ptr %0, i64 168
  %36 = load ptr, ptr %35, align 8, !tbaa !21
  %37 = load ptr, ptr %36, align 8, !tbaa !22
  %38 = tail call i32 %37(ptr noundef nonnull %0, ptr noundef nonnull %1, i64 noundef %2) #4
  %.not35 = icmp eq i32 %38, 0
  br i1 %.not35, label %44, label %39

39:                                               ; preds = %34
  %40 = load i8, ptr %12, align 4
  %41 = or i8 %40, 8
  store i8 %41, ptr %12, align 4
  br label %42

42:                                               ; preds = %39, %29
  %43 = tail call i32 @ossl_cipher_generic_set_ctx_params(ptr noundef nonnull %0, ptr noundef %5) #4
  %.not36 = icmp ne i32 %43, 0
  %. = zext i1 %.not36 to i32
  br label %44

44:                                               ; preds = %42, %34, %18, %7, %33
  %.0 = phi i32 [ 0, %33 ], [ 0, %7 ], [ 0, %18 ], [ 0, %34 ], [ %., %42 ]
  ret i32 %.0
}